-----BEGIN PRIVATE KEY-----
MIIEvgIBADANBgkqhkiG9w0BAQEFAASCBKgwggSkAgEAAoIBAQDpk4CQx1RH1taB
ZPImmHww/0yju6IsC1LBC/DeC1ihZOqsIHxQV5FnprTu+Dgf3Z9jKgPyzfqQcvbB
iNUpl7VN+eLELpewh/v9Gk6vx1uQM2m3esfzA3pyuA0DTh/Epvt8Pq06vDF0CZLu
juchQjV9JbbK5LWPpMm8sTBlGU1TrInYtXpl8ux841nbK6uyCwMILlN+ztl3Ouve
TucYkXRAoQP2HnY/L1TYTzD3TOGQERBzEqOh6B+BxdrVJqCdLwn6j8xi0aHwTxDt
PAuBvShcZZq0QsvCMZpePZsEVZWMThcUlMLvFalQLEAsbEGUW0eeoS3ktZutGOse
Ykz3msSdAgMBAAECggEBAL1q89j0/OEhVWUrksA/6n7lmqYxNIuZRyvsXhIDi4We
zDx4P7f7u5wd8h7VRtZ4qJgHa5pM9gSMZpV+PLd1Iv+wRPipfDQZov2XhvY/qn5f
Yzz7Iglt6a/8l/j1MwgMDmesgFjgYw5h8TjqxH8RLUVm/zy8ioyJq1wNKVzjTvUp
qse7p6FjAqCLBEJ4xji6n2XieehH51FOgEnvLp04JGlYfllAZZJf7b2t3GJxILXP
ri/x+z2y7WawzZGDUH63V2z7TvRcqJ7ejL6Gmuh8irHD55DZ+vvydZFlZ25tFJx2
23p3DdWOvZXY+NDr2TmE6sZYB/aiJBA4ngP0KhT+uvUCgYEA/2n85M5hI8OxUCn2
sXP6vBubBeYY/1yFTjYd3E4V1zGkW08M/7Zmz319oM7Fl+HsChyjOPvJa33hDPni
MgK6Y+HWJHaA1pmb2QNqeRtpq1Sko/7i386AiAr7JzpObUq+sf3MllU/WtsUHFOL
z9OKJ+XlXpnnshKeIfdqJuziNCsCgYEA6hywNzwpiIvQIcdg7ruMK4r2hWpEdMRS
C1f+cYvicKyGz84V9AJMwbsUfOJ9Q2UDfqxnuSU+r7rmB/rLRP2Yrs3JSXASeqPJ
q+g0DMLcLLfDOxgcu4dYOQKHmAlgXV+a8icwt5yVs9WYxmpowU0lFuaXPSfzA2Bl
IM5eIpjaHlcCgYB2q9YWsVUs+tW9u2GlnY+YKvNiUEC5FVHSvw4suBMpwyTsT9Ro
U2V9bn8aYjgok43KPPgRl9tEGF6iWtAgEGht1BZdJrpB+2kP8ahc0MHOGyvMDrd2
6UmK7B85YLvjx+DGbnfKOZ2QJ042wxKo407DrutdgwDGGiRi/8PQhiurtQKBgG3K
vH168oN+BkMBLR1oyUjWZ9yTxLz6IPv+7W40yyJKVwL3xGXl+jdU1DvpQBOuOOBc
XFyA8hAZ161gWZnmUIeSLNcK/y+Sxo6fXGGrtPQnziBVo4vy4lYCMLMFmrLPlmwA
IyHJBpALGRXca3pUApPl2oGszZQEzgh/n7gb9RcLAoGBAIDkrwFffgt0Jn2/PkDM
iEgk1NV3XsdVB4vh3BN6iu+fG6FIQvX9owJ4gI3FKcNmg2eCB3x7izeWEmryPFq8
htiH6Jq2x9OAhZsd2dbrWGJLNb2YqBdtcjMbfiFw2D3FND1UVuT0JA1LXIVvguPs
M0ZVjjeZgQgRPFU8JxkYgkXA
-----END PRIVATE KEY-----
Certificate:
    Data:
        Version: 1 (0x0)
        Serial Number: 0 (0x0)
        Signature Algorithm: sha256WithRSAEncryption
        Issuer: O=Sainsmograf.com, OU=CA Auth/emailAddress=arif@sainsmograf.com, L=Bandung, ST=West Java, C=ID, CN=Arif Widi Nugroho
        Validity
            Not Before: May 10 13:51:17 2012 GMT
            Not After : May 10 13:51:17 2014 GMT
        Subject: C=ID, ST=West Java, O=Sainsmograf.com, OU=Environmental Modelling, CN=aqm.sainsmograf.com
        Subject Public Key Info:
            Public Key Algorithm: rsaEncryption
                Public-Key: (2048 bit)
                Modulus:
                    00:e9:93:80:90:c7:54:47:d6:d6:81:64:f2:26:98:
                    7c:30:ff:4c:a3:bb:a2:2c:0b:52:c1:0b:f0:de:0b:
                    58:a1:64:ea:ac:20:7c:50:57:91:67:a6:b4:ee:f8:
                    38:1f:dd:9f:63:2a:03:f2:cd:fa:90:72:f6:c1:88:
                    d5:29:97:b5:4d:f9:e2:c4:2e:97:b0:87:fb:fd:1a:
                    4e:af:c7:5b:90:33:69:b7:7a:c7:f3:03:7a:72:b8:
                    0d:03:4e:1f:c4:a6:fb:7c:3e:ad:3a:bc:31:74:09:
                    92:ee:8e:e7:21:42:35:7d:25:b6:ca:e4:b5:8f:a4:
                    c9:bc:b1:30:65:19:4d:53:ac:89:d8:b5:7a:65:f2:
                    ec:7c:e3:59:db:2b:ab:b2:0b:03:08:2e:53:7e:ce:
                    d9:77:3a:eb:de:4e:e7:18:91:74:40:a1:03:f6:1e:
                    76:3f:2f:54:d8:4f:30:f7:4c:e1:90:11:10:73:12:
                    a3:a1:e8:1f:81:c5:da:d5:26:a0:9d:2f:09:fa:8f:
                    cc:62:d1:a1:f0:4f:10:ed:3c:0b:81:bd:28:5c:65:
                    9a:b4:42:cb:c2:31:9a:5e:3d:9b:04:55:95:8c:4e:
                    17:14:94:c2:ef:15:a9:50:2c:40:2c:6c:41:94:5b:
                    47:9e:a1:2d:e4:b5:9b:ad:18:eb:1e:62:4c:f7:9a:
                    c4:9d
                Exponent: 65537 (0x10001)
    Signature Algorithm: sha256WithRSAEncryption
        4f:a6:bb:46:04:99:fd:1c:78:fd:90:44:41:da:c9:b8:ff:32:
        56:a6:7f:e4:e5:ce:66:87:59:d5:fb:5b:fe:4a:4b:53:c0:ca:
        8d:d9:69:cd:2a:86:b3:49:d6:47:6d:d8:84:d8:cf:f0:f9:76:
        42:36:8a:07:2d:ab:1a:90:3e:8c:2d:b8:e3:58:a4:31:a9:e1:
        35:ac:a5:a9:cb:d8:33:68:a8:a9:2d:d8:d2:d9:12:62:9f:64:
        f3:b4:26:26:d4:5d:9b:86:35:65:51:7e:cf:ab:65:13:c3:19:
        8a:7f:04:65:23:b8:32:3d:9b:aa:79:47:11:e4:3a:b0:e2:51:
        97:59:7e:8e:1f:76:b7:de:23:fa:b4:3f:fd:25:58:19:5d:fd:
        f7:6c:94:26:b1:b4:12:c2:be:37:6c:d2:50:2b:a7:54:5b:c6:
        9c:9d:57:4c:6a:d4:66:87:7a:4b:2d:16:00:57:c8:48:7e:05:
        85:5f:04:55:41:4f:b5:62:f8:ab:4b:13:9c:f8:79:b9:bb:7c:
        dc:85:6e:ec:0c:05:27:ff:4e:75:84:87:f0:29:8e:a8:ba:31:
        6a:51:b2:4a:8e:9b:6e:e8:43:f6:06:b9:6b:37:d4:a2:18:2b:
        fe:a0:dc:90:75:5c:07:3a:48:79:f9:a0:64:43:02:7d:e7:32:
        8f:65:67:e2
-----BEGIN CERTIFICATE-----
MIIDkDCCAngCAQAwDQYJKoZIhvcNAQELBQAwgaAxGDAWBgNVBAoTD1NhaW5zbW9n
cmFmLmNvbTEQMA4GA1UECxMHQ0EgQXV0aDEjMCEGCSqGSIb3DQEJARYUYXJpZkBz
YWluc21vZ3JhZi5jb20xEDAOBgNVBAcTB0JhbmR1bmcxEjAQBgNVBAgTCVdlc3Qg
SmF2YTELMAkGA1UEBhMCSUQxGjAYBgNVBAMTEUFyaWYgV2lkaSBOdWdyb2hvMB4X
DTEyMDUxMDEzNTExN1oXDTE0MDUxMDEzNTExN1owezELMAkGA1UEBhMCSUQxEjAQ
BgNVBAgTCVdlc3QgSmF2YTEYMBYGA1UEChMPU2FpbnNtb2dyYWYuY29tMSAwHgYD
VQQLExdFbnZpcm9ubWVudGFsIE1vZGVsbGluZzEcMBoGA1UEAxMTYXFtLnNhaW5z
bW9ncmFmLmNvbTCCASIwDQYJKoZIhvcNAQEBBQADggEPADCCAQoCggEBAOmTgJDH
VEfW1oFk8iaYfDD/TKO7oiwLUsEL8N4LWKFk6qwgfFBXkWemtO74OB/dn2MqA/LN
+pBy9sGI1SmXtU354sQul7CH+/0aTq/HW5Azabd6x/MDenK4DQNOH8Sm+3w+rTq8
MXQJku6O5yFCNX0ltsrktY+kybyxMGUZTVOsidi1emXy7HzjWdsrq7ILAwguU37O
2Xc6695O5xiRdEChA/Yedj8vVNhPMPdM4ZAREHMSo6HoH4HF2tUmoJ0vCfqPzGLR
ofBPEO08C4G9KFxlmrRCy8Ixml49mwRVlYxOFxSUwu8VqVAsQCxsQZRbR56hLeS1
m60Y6x5iTPeaxJ0CAwEAATANBgkqhkiG9w0BAQsFAAOCAQEAT6a7RgSZ/Rx4/ZBE
QdrJuP8yVqZ/5OXOZodZ1ftb/kpLU8DKjdlpzSqGs0nWR23YhNjP8Pl2QjaKBy2r
GpA+jC2441ikManhNaylqcvYM2ioqS3Y0tkSYp9k87QmJtRdm4Y1ZVF+z6tlE8MZ
in8EZSO4Mj2bqnlHEeQ6sOJRl1l+jh92t94j+rQ//SVYGV3992yUJrG0EsK+N2zS
UCunVFvGnJ1XTGrUZod6Sy0WAFfISH4FhV8EVUFPtWL4q0sTnPh5ubt83IVu7AwF
J/9OdYSH8CmOqLoxalGySo6bbuhD9ga5azfUohgr/qDckHVcBzpIefmgZEMCfecy
j2Vn4g==
-----END CERTIFICATE-----
